
examples_main.elf:     file format elf32-littlearm


Disassembly of section .isr_vector:

08000000 <g_pfnVectors>:
 8000000:	20020000 	andcs	r0, r2, r0
 8000004:	08000add 	stmdaeq	r0, {r0, r2, r3, r4, r6, r7, r9, fp}
 8000008:	08000b25 	stmdaeq	r0, {r0, r2, r5, r8, r9, fp}
 800000c:	08000b25 	stmdaeq	r0, {r0, r2, r5, r8, r9, fp}
 8000010:	08000b25 	stmdaeq	r0, {r0, r2, r5, r8, r9, fp}
 8000014:	08000b25 	stmdaeq	r0, {r0, r2, r5, r8, r9, fp}
 8000018:	08000b25 	stmdaeq	r0, {r0, r2, r5, r8, r9, fp}
	...
 800002c:	08000b25 	stmdaeq	r0, {r0, r2, r5, r8, r9, fp}
 8000030:	08000b25 	stmdaeq	r0, {r0, r2, r5, r8, r9, fp}
 8000034:	00000000 	andeq	r0, r0, r0
 8000038:	08000b25 	stmdaeq	r0, {r0, r2, r5, r8, r9, fp}
 800003c:	08000b25 	stmdaeq	r0, {r0, r2, r5, r8, r9, fp}
 8000040:	08000b25 	stmdaeq	r0, {r0, r2, r5, r8, r9, fp}
 8000044:	08000b25 	stmdaeq	r0, {r0, r2, r5, r8, r9, fp}
 8000048:	08000b25 	stmdaeq	r0, {r0, r2, r5, r8, r9, fp}
 800004c:	08000b25 	stmdaeq	r0, {r0, r2, r5, r8, r9, fp}
 8000050:	08000b25 	stmdaeq	r0, {r0, r2, r5, r8, r9, fp}
 8000054:	08000b25 	stmdaeq	r0, {r0, r2, r5, r8, r9, fp}
 8000058:	08000b25 	stmdaeq	r0, {r0, r2, r5, r8, r9, fp}
 800005c:	08000b25 	stmdaeq	r0, {r0, r2, r5, r8, r9, fp}
 8000060:	08000b25 	stmdaeq	r0, {r0, r2, r5, r8, r9, fp}
 8000064:	08000b25 	stmdaeq	r0, {r0, r2, r5, r8, r9, fp}
 8000068:	08000b25 	stmdaeq	r0, {r0, r2, r5, r8, r9, fp}
 800006c:	08000b25 	stmdaeq	r0, {r0, r2, r5, r8, r9, fp}
 8000070:	08000b25 	stmdaeq	r0, {r0, r2, r5, r8, r9, fp}
 8000074:	08000b25 	stmdaeq	r0, {r0, r2, r5, r8, r9, fp}
 8000078:	08000b25 	stmdaeq	r0, {r0, r2, r5, r8, r9, fp}
 800007c:	08000b25 	stmdaeq	r0, {r0, r2, r5, r8, r9, fp}
 8000080:	08000b25 	stmdaeq	r0, {r0, r2, r5, r8, r9, fp}
 8000084:	08000b25 	stmdaeq	r0, {r0, r2, r5, r8, r9, fp}
 8000088:	08000b25 	stmdaeq	r0, {r0, r2, r5, r8, r9, fp}
 800008c:	08000b25 	stmdaeq	r0, {r0, r2, r5, r8, r9, fp}
 8000090:	08000b25 	stmdaeq	r0, {r0, r2, r5, r8, r9, fp}
 8000094:	08000b25 	stmdaeq	r0, {r0, r2, r5, r8, r9, fp}
 8000098:	08000b25 	stmdaeq	r0, {r0, r2, r5, r8, r9, fp}
 800009c:	08000b25 	stmdaeq	r0, {r0, r2, r5, r8, r9, fp}
 80000a0:	08000b25 	stmdaeq	r0, {r0, r2, r5, r8, r9, fp}
 80000a4:	08000b25 	stmdaeq	r0, {r0, r2, r5, r8, r9, fp}
 80000a8:	08000b25 	stmdaeq	r0, {r0, r2, r5, r8, r9, fp}
 80000ac:	08000b25 	stmdaeq	r0, {r0, r2, r5, r8, r9, fp}
 80000b0:	08000b25 	stmdaeq	r0, {r0, r2, r5, r8, r9, fp}
 80000b4:	08000b25 	stmdaeq	r0, {r0, r2, r5, r8, r9, fp}
 80000b8:	08000b25 	stmdaeq	r0, {r0, r2, r5, r8, r9, fp}
 80000bc:	08000b25 	stmdaeq	r0, {r0, r2, r5, r8, r9, fp}
 80000c0:	08000b25 	stmdaeq	r0, {r0, r2, r5, r8, r9, fp}
 80000c4:	08000b25 	stmdaeq	r0, {r0, r2, r5, r8, r9, fp}
 80000c8:	08000b25 	stmdaeq	r0, {r0, r2, r5, r8, r9, fp}
 80000cc:	08000b25 	stmdaeq	r0, {r0, r2, r5, r8, r9, fp}
 80000d0:	08000b25 	stmdaeq	r0, {r0, r2, r5, r8, r9, fp}
 80000d4:	08000b25 	stmdaeq	r0, {r0, r2, r5, r8, r9, fp}
 80000d8:	08000b25 	stmdaeq	r0, {r0, r2, r5, r8, r9, fp}
 80000dc:	08000b25 	stmdaeq	r0, {r0, r2, r5, r8, r9, fp}
 80000e0:	08000b25 	stmdaeq	r0, {r0, r2, r5, r8, r9, fp}
 80000e4:	08000b25 	stmdaeq	r0, {r0, r2, r5, r8, r9, fp}
 80000e8:	08000b25 	stmdaeq	r0, {r0, r2, r5, r8, r9, fp}
 80000ec:	08000b25 	stmdaeq	r0, {r0, r2, r5, r8, r9, fp}
 80000f0:	08000b25 	stmdaeq	r0, {r0, r2, r5, r8, r9, fp}
 80000f4:	08000b25 	stmdaeq	r0, {r0, r2, r5, r8, r9, fp}
 80000f8:	08000b25 	stmdaeq	r0, {r0, r2, r5, r8, r9, fp}
 80000fc:	08000b25 	stmdaeq	r0, {r0, r2, r5, r8, r9, fp}
 8000100:	08000b25 	stmdaeq	r0, {r0, r2, r5, r8, r9, fp}
 8000104:	08000b25 	stmdaeq	r0, {r0, r2, r5, r8, r9, fp}
 8000108:	08000b25 	stmdaeq	r0, {r0, r2, r5, r8, r9, fp}
 800010c:	08000b25 	stmdaeq	r0, {r0, r2, r5, r8, r9, fp}
 8000110:	08000b25 	stmdaeq	r0, {r0, r2, r5, r8, r9, fp}
 8000114:	08000b25 	stmdaeq	r0, {r0, r2, r5, r8, r9, fp}
 8000118:	08000b25 	stmdaeq	r0, {r0, r2, r5, r8, r9, fp}
 800011c:	08000b25 	stmdaeq	r0, {r0, r2, r5, r8, r9, fp}
 8000120:	08000b25 	stmdaeq	r0, {r0, r2, r5, r8, r9, fp}
 8000124:	08000b25 	stmdaeq	r0, {r0, r2, r5, r8, r9, fp}
 8000128:	08000b25 	stmdaeq	r0, {r0, r2, r5, r8, r9, fp}
 800012c:	08000b25 	stmdaeq	r0, {r0, r2, r5, r8, r9, fp}
 8000130:	08000b25 	stmdaeq	r0, {r0, r2, r5, r8, r9, fp}
	...
 800013c:	08000b25 	stmdaeq	r0, {r0, r2, r5, r8, r9, fp}
 8000140:	08000b25 	stmdaeq	r0, {r0, r2, r5, r8, r9, fp}
 8000144:	08000b25 	stmdaeq	r0, {r0, r2, r5, r8, r9, fp}
 8000148:	08000b25 	stmdaeq	r0, {r0, r2, r5, r8, r9, fp}
 800014c:	08000b25 	stmdaeq	r0, {r0, r2, r5, r8, r9, fp}
 8000150:	08000b25 	stmdaeq	r0, {r0, r2, r5, r8, r9, fp}
 8000154:	08000b25 	stmdaeq	r0, {r0, r2, r5, r8, r9, fp}
 8000158:	08000b25 	stmdaeq	r0, {r0, r2, r5, r8, r9, fp}
 800015c:	08000b25 	stmdaeq	r0, {r0, r2, r5, r8, r9, fp}
 8000160:	08000b25 	stmdaeq	r0, {r0, r2, r5, r8, r9, fp}
 8000164:	08000b25 	stmdaeq	r0, {r0, r2, r5, r8, r9, fp}
 8000168:	08000b25 	stmdaeq	r0, {r0, r2, r5, r8, r9, fp}
 800016c:	08000b25 	stmdaeq	r0, {r0, r2, r5, r8, r9, fp}
 8000170:	08000b25 	stmdaeq	r0, {r0, r2, r5, r8, r9, fp}
 8000174:	08000b25 	stmdaeq	r0, {r0, r2, r5, r8, r9, fp}
 8000178:	08000b25 	stmdaeq	r0, {r0, r2, r5, r8, r9, fp}
	...
 8000184:	08000b25 	stmdaeq	r0, {r0, r2, r5, r8, r9, fp}
	...
 8000190:	08000b25 	stmdaeq	r0, {r0, r2, r5, r8, r9, fp}
	...
 800019c:	08000b25 	stmdaeq	r0, {r0, r2, r5, r8, r9, fp}
	...
 80001ac:	08000b25 	stmdaeq	r0, {r0, r2, r5, r8, r9, fp}
 80001b0:	08000b25 	stmdaeq	r0, {r0, r2, r5, r8, r9, fp}
 80001b4:	08000b25 	stmdaeq	r0, {r0, r2, r5, r8, r9, fp}
 80001b8:	08000b25 	stmdaeq	r0, {r0, r2, r5, r8, r9, fp}
 80001bc:	08000b25 	stmdaeq	r0, {r0, r2, r5, r8, r9, fp}
 80001c0:	08000b25 	stmdaeq	r0, {r0, r2, r5, r8, r9, fp}

Disassembly of section .text:

080001c4 <board_init>:
 80001c4:	b508      	push	{r3, lr}
 80001c6:	2105      	movs	r1, #5
 80001c8:	2000      	movs	r0, #0
 80001ca:	f000 f88b 	bl	80002e4 <led_init>
 80001ce:	2200      	movs	r2, #0
 80001d0:	4610      	mov	r0, r2
 80001d2:	2105      	movs	r1, #5
 80001d4:	f000 f8a0 	bl	8000318 <led_set>
 80001d8:	210d      	movs	r1, #13
 80001da:	2002      	movs	r0, #2
 80001dc:	f000 f8c8 	bl	8000370 <button_init>
 80001e0:	e8bd 4008 	ldmia.w	sp!, {r3, lr}
 80001e4:	f44f 31e1 	mov.w	r1, #115200	@ 0x1c200
 80001e8:	2001      	movs	r0, #1
 80001ea:	f000 b921 	b.w	8000430 <usart_init>
 80001ee:	bf00      	nop

080001f0 <board_led_on>:
 80001f0:	2201      	movs	r2, #1
 80001f2:	2105      	movs	r1, #5
 80001f4:	2000      	movs	r0, #0
 80001f6:	f000 b88f 	b.w	8000318 <led_set>
 80001fa:	bf00      	nop

080001fc <board_led_off>:
 80001fc:	b508      	push	{r3, lr}
 80001fe:	2105      	movs	r1, #5
 8000200:	2000      	movs	r0, #0
 8000202:	f000 f86f 	bl	80002e4 <led_init>
 8000206:	2200      	movs	r2, #0
 8000208:	e8bd 4008 	ldmia.w	sp!, {r3, lr}
 800020c:	2105      	movs	r1, #5
 800020e:	4610      	mov	r0, r2
 8000210:	f000 b882 	b.w	8000318 <led_set>

08000214 <board_led_toggle>:
 8000214:	2105      	movs	r1, #5
 8000216:	2000      	movs	r0, #0
 8000218:	f000 b88c 	b.w	8000334 <led_toggle>

0800021c <board_button_init>:
 800021c:	210d      	movs	r1, #13
 800021e:	2002      	movs	r0, #2
 8000220:	f000 b8a6 	b.w	8000370 <button_init>

08000224 <board_pwm_led_init>:
 8000224:	b508      	push	{r3, lr}
 8000226:	2105      	movs	r1, #5
 8000228:	2000      	movs	r0, #0
 800022a:	f000 f85b 	bl	80002e4 <led_init>
 800022e:	2201      	movs	r2, #1
 8000230:	2105      	movs	r1, #5
 8000232:	4807      	ldr	r0, [pc, #28]	@ (8000250 <board_pwm_led_init+0x2c>)
 8000234:	f000 f9dc 	bl	80005f0 <bare_gpio_AF>
 8000238:	2000      	movs	r0, #0
 800023a:	f000 f8c7 	bl	80003cc <tim_init>
 800023e:	2000      	movs	r0, #0
 8000240:	f000 f8e2 	bl	8000408 <tim_pwm_enable>
 8000244:	e8bd 4008 	ldmia.w	sp!, {r3, lr}
 8000248:	2000      	movs	r0, #0
 800024a:	f000 b8c9 	b.w	80003e0 <tim_start>
 800024e:	bf00      	nop
 8000250:	40020000 	andmi	r0, r2, r0

08000254 <board_pwm_set_brightness>:
 8000254:	2864      	cmp	r0, #100	@ 0x64
 8000256:	4601      	mov	r1, r0
 8000258:	bf28      	it	cs
 800025a:	2164      	movcs	r1, #100	@ 0x64
 800025c:	2000      	movs	r0, #0
 800025e:	f000 b8dd 	b.w	800041c <tim_pwm_set_duty>
 8000262:	bf00      	nop

08000264 <board_button_pressed>:
 8000264:	210d      	movs	r1, #13
 8000266:	2002      	movs	r0, #2
 8000268:	f000 b89e 	b.w	80003a8 <button_is_pressed>

0800026c <board_wait_for_button_press>:
 800026c:	b508      	push	{r3, lr}
 800026e:	210d      	movs	r1, #13
 8000270:	2002      	movs	r0, #2
 8000272:	f000 f899 	bl	80003a8 <button_is_pressed>
 8000276:	2800      	cmp	r0, #0
 8000278:	d0f9      	beq.n	800026e <board_wait_for_button_press+0x2>
 800027a:	bd08      	pop	{r3, pc}

0800027c <board_usart_send>:
 800027c:	4601      	mov	r1, r0
 800027e:	2001      	movs	r0, #1
 8000280:	f000 b8e2 	b.w	8000448 <usart_send_string>

08000284 <board_usart_receive_char>:
 8000284:	2001      	movs	r0, #1
 8000286:	f000 b8eb 	b.w	8000460 <usart_read_char>
 800028a:	bf00      	nop

0800028c <board_usart_clear>:
 800028c:	2001      	movs	r0, #1
 800028e:	f000 b8f3 	b.w	8000478 <usart_clear>
 8000292:	bf00      	nop

08000294 <delay_ms>:
 8000294:	f44f 537a 	mov.w	r3, #16000	@ 0x3e80
 8000298:	b510      	push	{r4, lr}
 800029a:	fb03 f400 	mul.w	r4, r3, r0
 800029e:	4620      	mov	r0, r4
 80002a0:	f000 fa02 	bl	80006a8 <SysTick_Set_TIMER>
 80002a4:	2200      	movs	r2, #0
 80002a6:	2101      	movs	r1, #1
 80002a8:	4620      	mov	r0, r4
 80002aa:	f000 f9e7 	bl	800067c <SysTick_Init>
 80002ae:	f04f 22e0 	mov.w	r2, #3758153728	@ 0xe000e000
 80002b2:	6913      	ldr	r3, [r2, #16]
 80002b4:	03db      	lsls	r3, r3, #15
 80002b6:	d5fc      	bpl.n	80002b2 <delay_ms+0x1e>
 80002b8:	2300      	movs	r3, #0
 80002ba:	6113      	str	r3, [r2, #16]
 80002bc:	bd10      	pop	{r4, pc}
 80002be:	bf00      	nop

080002c0 <delay_us>:
 80002c0:	b510      	push	{r4, lr}
 80002c2:	0104      	lsls	r4, r0, #4
 80002c4:	4620      	mov	r0, r4
 80002c6:	f000 f9ef 	bl	80006a8 <SysTick_Set_TIMER>
 80002ca:	2200      	movs	r2, #0
 80002cc:	2101      	movs	r1, #1
 80002ce:	4620      	mov	r0, r4
 80002d0:	f000 f9d4 	bl	800067c <SysTick_Init>
 80002d4:	f04f 22e0 	mov.w	r2, #3758153728	@ 0xe000e000
 80002d8:	6913      	ldr	r3, [r2, #16]
 80002da:	03db      	lsls	r3, r3, #15
 80002dc:	d5fc      	bpl.n	80002d8 <delay_us+0x18>
 80002de:	2300      	movs	r3, #0
 80002e0:	6113      	str	r3, [r2, #16]
 80002e2:	bd10      	pop	{r4, pc}

080002e4 <led_init>:
 80002e4:	b500      	push	{lr}
 80002e6:	1e43      	subs	r3, r0, #1
 80002e8:	2b06      	cmp	r3, #6
 80002ea:	bf98      	it	ls
 80002ec:	0280      	lslls	r0, r0, #10
 80002ee:	b083      	sub	sp, #12
 80002f0:	bf98      	it	ls
 80002f2:	f100 4080 	addls.w	r0, r0, #1073741824	@ 0x40000000
 80002f6:	f04f 0300 	mov.w	r3, #0
 80002fa:	e9cd 3300 	strd	r3, r3, [sp]
 80002fe:	bf8c      	ite	hi
 8000300:	4804      	ldrhi	r0, [pc, #16]	@ (8000314 <led_init+0x30>)
 8000302:	f500 3000 	addls.w	r0, r0, #131072	@ 0x20000
 8000306:	2201      	movs	r2, #1
 8000308:	f000 f91e 	bl	8000548 <bare_gpio_init>
 800030c:	b003      	add	sp, #12
 800030e:	f85d fb04 	ldr.w	pc, [sp], #4
 8000312:	bf00      	nop
 8000314:	40020000 	andmi	r0, r2, r0

08000318 <led_set>:
 8000318:	1e43      	subs	r3, r0, #1
 800031a:	2b06      	cmp	r3, #6
 800031c:	bf9b      	ittet	ls
 800031e:	0280      	lslls	r0, r0, #10
 8000320:	f100 4080 	addls.w	r0, r0, #1073741824	@ 0x40000000
 8000324:	4802      	ldrhi	r0, [pc, #8]	@ (8000330 <led_set+0x18>)
 8000326:	f500 3000 	addls.w	r0, r0, #131072	@ 0x20000
 800032a:	f000 b94b 	b.w	80005c4 <bare_gpio_write>
 800032e:	bf00      	nop
 8000330:	40020000 	andmi	r0, r2, r0

08000334 <led_toggle>:
 8000334:	1e43      	subs	r3, r0, #1
 8000336:	2b06      	cmp	r3, #6
 8000338:	bf9b      	ittet	ls
 800033a:	0280      	lslls	r0, r0, #10
 800033c:	f100 4080 	addls.w	r0, r0, #1073741824	@ 0x40000000
 8000340:	4802      	ldrhi	r0, [pc, #8]	@ (800034c <led_toggle+0x18>)
 8000342:	f500 3000 	addls.w	r0, r0, #131072	@ 0x20000
 8000346:	f000 b94d 	b.w	80005e4 <bare_gpio_toggle>
 800034a:	bf00      	nop
 800034c:	40020000 	andmi	r0, r2, r0

08000350 <led_status>:
 8000350:	b508      	push	{r3, lr}
 8000352:	1e43      	subs	r3, r0, #1
 8000354:	2b06      	cmp	r3, #6
 8000356:	bf9b      	ittet	ls
 8000358:	0280      	lslls	r0, r0, #10
 800035a:	f100 4080 	addls.w	r0, r0, #1073741824	@ 0x40000000
 800035e:	4803      	ldrhi	r0, [pc, #12]	@ (800036c <led_status+0x1c>)
 8000360:	f500 3000 	addls.w	r0, r0, #131072	@ 0x20000
 8000364:	f000 f982 	bl	800066c <bare_gpio_check_state>
 8000368:	b2c0      	uxtb	r0, r0
 800036a:	bd08      	pop	{r3, pc}
 800036c:	40020000 	andmi	r0, r2, r0

08000370 <button_init>:
 8000370:	b500      	push	{lr}
 8000372:	1e43      	subs	r3, r0, #1
 8000374:	2b06      	cmp	r3, #6
 8000376:	bf98      	it	ls
 8000378:	0280      	lslls	r0, r0, #10
 800037a:	b083      	sub	sp, #12
 800037c:	f04f 0300 	mov.w	r3, #0
 8000380:	bf98      	it	ls
 8000382:	f100 4080 	addls.w	r0, r0, #1073741824	@ 0x40000000
 8000386:	f04f 0201 	mov.w	r2, #1
 800038a:	e9cd 3200 	strd	r3, r2, [sp]
 800038e:	bf8c      	ite	hi
 8000390:	4804      	ldrhi	r0, [pc, #16]	@ (80003a4 <button_init+0x34>)
 8000392:	f500 3000 	addls.w	r0, r0, #131072	@ 0x20000
 8000396:	461a      	mov	r2, r3
 8000398:	f000 f8d6 	bl	8000548 <bare_gpio_init>
 800039c:	b003      	add	sp, #12
 800039e:	f85d fb04 	ldr.w	pc, [sp], #4
 80003a2:	bf00      	nop
 80003a4:	40020000 	andmi	r0, r2, r0

080003a8 <button_is_pressed>:
 80003a8:	b508      	push	{r3, lr}
 80003aa:	1e43      	subs	r3, r0, #1
 80003ac:	2b06      	cmp	r3, #6
 80003ae:	bf9b      	ittet	ls
 80003b0:	0280      	lslls	r0, r0, #10
 80003b2:	f100 4080 	addls.w	r0, r0, #1073741824	@ 0x40000000
 80003b6:	4804      	ldrhi	r0, [pc, #16]	@ (80003c8 <button_is_pressed+0x20>)
 80003b8:	f500 3000 	addls.w	r0, r0, #131072	@ 0x20000
 80003bc:	f000 f90c 	bl	80005d8 <bare_gpio_read>
 80003c0:	fab0 f080 	clz	r0, r0
 80003c4:	0940      	lsrs	r0, r0, #5
 80003c6:	bd08      	pop	{r3, pc}
 80003c8:	40020000 	andmi	r0, r2, r0

080003cc <tim_init>:
 80003cc:	1e43      	subs	r3, r0, #1
 80003ce:	2b02      	cmp	r3, #2
 80003d0:	bf9a      	itte	ls
 80003d2:	0280      	lslls	r0, r0, #10
 80003d4:	f100 4080 	addls.w	r0, r0, #1073741824	@ 0x40000000
 80003d8:	f04f 4080 	movhi.w	r0, #1073741824	@ 0x40000000
 80003dc:	f000 b96a 	b.w	80006b4 <bare_tim2_5_set>

080003e0 <tim_start>:
 80003e0:	1e43      	subs	r3, r0, #1
 80003e2:	2b02      	cmp	r3, #2
 80003e4:	bf9a      	itte	ls
 80003e6:	0280      	lslls	r0, r0, #10
 80003e8:	f100 4080 	addls.w	r0, r0, #1073741824	@ 0x40000000
 80003ec:	f04f 4080 	movhi.w	r0, #1073741824	@ 0x40000000
 80003f0:	f000 b966 	b.w	80006c0 <bare_tim2_5_start>

080003f4 <tim_stop>:
 80003f4:	1e43      	subs	r3, r0, #1
 80003f6:	2b02      	cmp	r3, #2
 80003f8:	bf9a      	itte	ls
 80003fa:	0280      	lslls	r0, r0, #10
 80003fc:	f100 4080 	addls.w	r0, r0, #1073741824	@ 0x40000000
 8000400:	f04f 4080 	movhi.w	r0, #1073741824	@ 0x40000000
 8000404:	f000 b9ac 	b.w	8000760 <bare_tim2_5_stop>

08000408 <tim_pwm_enable>:
 8000408:	1e43      	subs	r3, r0, #1
 800040a:	2b02      	cmp	r3, #2
 800040c:	bf9a      	itte	ls
 800040e:	0280      	lslls	r0, r0, #10
 8000410:	f100 4080 	addls.w	r0, r0, #1073741824	@ 0x40000000
 8000414:	f04f 4080 	movhi.w	r0, #1073741824	@ 0x40000000
 8000418:	f000 b9f0 	b.w	80007fc <bare_tim2_5_PWM>

0800041c <tim_pwm_set_duty>:
 800041c:	1e43      	subs	r3, r0, #1
 800041e:	2b02      	cmp	r3, #2
 8000420:	bf9a      	itte	ls
 8000422:	0280      	lslls	r0, r0, #10
 8000424:	f100 4080 	addls.w	r0, r0, #1073741824	@ 0x40000000
 8000428:	f04f 4080 	movhi.w	r0, #1073741824	@ 0x40000000
 800042c:	f000 ba36 	b.w	800089c <bare_pwm_set_duty>

08000430 <usart_init>:
 8000430:	2803      	cmp	r0, #3
 8000432:	bf96      	itet	ls
 8000434:	4b02      	ldrls	r3, [pc, #8]	@ (8000440 <usart_init+0x10>)
 8000436:	4803      	ldrhi	r0, [pc, #12]	@ (8000444 <usart_init+0x14>)
 8000438:	f853 0020 	ldrls.w	r0, [r3, r0, lsl #2]
 800043c:	f000 ba3c 	b.w	80008b8 <bare_usart_init_port>
 8000440:	08000b28 	stmdaeq	r0, {r3, r5, r8, r9, fp}
 8000444:	40004400 	andmi	r4, r0, r0, lsl #8

08000448 <usart_send_string>:
 8000448:	2803      	cmp	r0, #3
 800044a:	bf96      	itet	ls
 800044c:	4b02      	ldrls	r3, [pc, #8]	@ (8000458 <usart_send_string+0x10>)
 800044e:	4803      	ldrhi	r0, [pc, #12]	@ (800045c <usart_send_string+0x14>)
 8000450:	f853 0020 	ldrls.w	r0, [r3, r0, lsl #2]
 8000454:	f000 bab6 	b.w	80009c4 <bare_usart_send_string_port>
 8000458:	08000b28 	stmdaeq	r0, {r3, r5, r8, r9, fp}
 800045c:	40004400 	andmi	r4, r0, r0, lsl #8

08000460 <usart_read_char>:
 8000460:	2803      	cmp	r0, #3
 8000462:	bf96      	itet	ls
 8000464:	4b02      	ldrls	r3, [pc, #8]	@ (8000470 <usart_read_char+0x10>)
 8000466:	4803      	ldrhi	r0, [pc, #12]	@ (8000474 <usart_read_char+0x14>)
 8000468:	f853 0020 	ldrls.w	r0, [r3, r0, lsl #2]
 800046c:	f000 bab8 	b.w	80009e0 <bare_usart_read_char_port>
 8000470:	08000b28 	stmdaeq	r0, {r3, r5, r8, r9, fp}
 8000474:	40004400 	andmi	r4, r0, r0, lsl #8

08000478 <usart_clear>:
 8000478:	2803      	cmp	r0, #3
 800047a:	bf96      	itet	ls
 800047c:	4b02      	ldrls	r3, [pc, #8]	@ (8000488 <usart_clear+0x10>)
 800047e:	4803      	ldrhi	r0, [pc, #12]	@ (800048c <usart_clear+0x14>)
 8000480:	f853 0020 	ldrls.w	r0, [r3, r0, lsl #2]
 8000484:	f000 bab4 	b.w	80009f0 <bare_usart_clear_screen_port>
 8000488:	08000b28 	stmdaeq	r0, {r3, r5, r8, r9, fp}
 800048c:	40004400 	andmi	r4, r0, r0, lsl #8

08000490 <bare_gpio_enable_clock>:
 8000490:	4b24      	ldr	r3, [pc, #144]	@ (8000524 <bare_gpio_enable_clock+0x94>)
 8000492:	4298      	cmp	r0, r3
 8000494:	d01b      	beq.n	80004ce <bare_gpio_enable_clock+0x3e>
 8000496:	4b24      	ldr	r3, [pc, #144]	@ (8000528 <bare_gpio_enable_clock+0x98>)
 8000498:	4298      	cmp	r0, r3
 800049a:	d012      	beq.n	80004c2 <bare_gpio_enable_clock+0x32>
 800049c:	4b23      	ldr	r3, [pc, #140]	@ (800052c <bare_gpio_enable_clock+0x9c>)
 800049e:	4298      	cmp	r0, r3
 80004a0:	d021      	beq.n	80004e6 <bare_gpio_enable_clock+0x56>
 80004a2:	4b23      	ldr	r3, [pc, #140]	@ (8000530 <bare_gpio_enable_clock+0xa0>)
 80004a4:	4298      	cmp	r0, r3
 80004a6:	d024      	beq.n	80004f2 <bare_gpio_enable_clock+0x62>
 80004a8:	4b22      	ldr	r3, [pc, #136]	@ (8000534 <bare_gpio_enable_clock+0xa4>)
 80004aa:	4298      	cmp	r0, r3
 80004ac:	d015      	beq.n	80004da <bare_gpio_enable_clock+0x4a>
 80004ae:	4b22      	ldr	r3, [pc, #136]	@ (8000538 <bare_gpio_enable_clock+0xa8>)
 80004b0:	4298      	cmp	r0, r3
 80004b2:	d024      	beq.n	80004fe <bare_gpio_enable_clock+0x6e>
 80004b4:	4b21      	ldr	r3, [pc, #132]	@ (800053c <bare_gpio_enable_clock+0xac>)
 80004b6:	4298      	cmp	r0, r3
 80004b8:	d027      	beq.n	800050a <bare_gpio_enable_clock+0x7a>
 80004ba:	4b21      	ldr	r3, [pc, #132]	@ (8000540 <bare_gpio_enable_clock+0xb0>)
 80004bc:	4298      	cmp	r0, r3
 80004be:	d02a      	beq.n	8000516 <bare_gpio_enable_clock+0x86>
 80004c0:	4770      	bx	lr
 80004c2:	4a20      	ldr	r2, [pc, #128]	@ (8000544 <bare_gpio_enable_clock+0xb4>)
 80004c4:	6b13      	ldr	r3, [r2, #48]	@ 0x30
 80004c6:	f043 0302 	orr.w	r3, r3, #2
 80004ca:	6313      	str	r3, [r2, #48]	@ 0x30
 80004cc:	4770      	bx	lr
 80004ce:	4a1d      	ldr	r2, [pc, #116]	@ (8000544 <bare_gpio_enable_clock+0xb4>)
 80004d0:	6b13      	ldr	r3, [r2, #48]	@ 0x30
 80004d2:	f043 0301 	orr.w	r3, r3, #1
 80004d6:	6313      	str	r3, [r2, #48]	@ 0x30
 80004d8:	4770      	bx	lr
 80004da:	4a1a      	ldr	r2, [pc, #104]	@ (8000544 <bare_gpio_enable_clock+0xb4>)
 80004dc:	6b13      	ldr	r3, [r2, #48]	@ 0x30
 80004de:	f043 0310 	orr.w	r3, r3, #16
 80004e2:	6313      	str	r3, [r2, #48]	@ 0x30
 80004e4:	4770      	bx	lr
 80004e6:	4a17      	ldr	r2, [pc, #92]	@ (8000544 <bare_gpio_enable_clock+0xb4>)
 80004e8:	6b13      	ldr	r3, [r2, #48]	@ 0x30
 80004ea:	f043 0304 	orr.w	r3, r3, #4
 80004ee:	6313      	str	r3, [r2, #48]	@ 0x30
 80004f0:	4770      	bx	lr
 80004f2:	4a14      	ldr	r2, [pc, #80]	@ (8000544 <bare_gpio_enable_clock+0xb4>)
 80004f4:	6b13      	ldr	r3, [r2, #48]	@ 0x30
 80004f6:	f043 0308 	orr.w	r3, r3, #8
 80004fa:	6313      	str	r3, [r2, #48]	@ 0x30
 80004fc:	4770      	bx	lr
 80004fe:	4a11      	ldr	r2, [pc, #68]	@ (8000544 <bare_gpio_enable_clock+0xb4>)
 8000500:	6b13      	ldr	r3, [r2, #48]	@ 0x30
 8000502:	f043 0320 	orr.w	r3, r3, #32
 8000506:	6313      	str	r3, [r2, #48]	@ 0x30
 8000508:	4770      	bx	lr
 800050a:	4a0e      	ldr	r2, [pc, #56]	@ (8000544 <bare_gpio_enable_clock+0xb4>)
 800050c:	6b13      	ldr	r3, [r2, #48]	@ 0x30
 800050e:	f043 0340 	orr.w	r3, r3, #64	@ 0x40
 8000512:	6313      	str	r3, [r2, #48]	@ 0x30
 8000514:	4770      	bx	lr
 8000516:	4a0b      	ldr	r2, [pc, #44]	@ (8000544 <bare_gpio_enable_clock+0xb4>)
 8000518:	6b13      	ldr	r3, [r2, #48]	@ 0x30
 800051a:	f043 0380 	orr.w	r3, r3, #128	@ 0x80
 800051e:	6313      	str	r3, [r2, #48]	@ 0x30
 8000520:	e7ce      	b.n	80004c0 <bare_gpio_enable_clock+0x30>
 8000522:	bf00      	nop
 8000524:	40020000 	andmi	r0, r2, r0
 8000528:	40020400 	andmi	r0, r2, r0, lsl #8
 800052c:	40020800 	andmi	r0, r2, r0, lsl #16
 8000530:	40020c00 	andmi	r0, r2, r0, lsl #24
 8000534:	40021000 	andmi	r1, r2, r0
 8000538:	40021400 	andmi	r1, r2, r0, lsl #8
 800053c:	40021800 	andmi	r1, r2, r0, lsl #16
 8000540:	40021c00 	andmi	r1, r2, r0, lsl #24
 8000544:	40023800 	andmi	r3, r2, r0, lsl #16

08000548 <bare_gpio_init>:
 8000548:	e92d 41f0 	stmdb	sp!, {r4, r5, r6, r7, r8, lr}
 800054c:	4604      	mov	r4, r0
 800054e:	f89d 701c 	ldrb.w	r7, [sp, #28]
 8000552:	f89d 8018 	ldrb.w	r8, [sp, #24]
 8000556:	4615      	mov	r5, r2
 8000558:	461e      	mov	r6, r3
 800055a:	f7ff ff99 	bl	8000490 <bare_gpio_enable_clock>
 800055e:	004a      	lsls	r2, r1, #1
 8000560:	f007 0303 	and.w	r3, r7, #3
 8000564:	f04f 0c03 	mov.w	ip, #3
 8000568:	6827      	ldr	r7, [r4, #0]
 800056a:	fa0c fc02 	lsl.w	ip, ip, r2
 800056e:	ea27 070c 	bic.w	r7, r7, ip
 8000572:	6027      	str	r7, [r4, #0]
 8000574:	f005 0503 	and.w	r5, r5, #3
 8000578:	f008 0003 	and.w	r0, r8, #3
 800057c:	4095      	lsls	r5, r2
 800057e:	4090      	lsls	r0, r2
 8000580:	4093      	lsls	r3, r2
 8000582:	6822      	ldr	r2, [r4, #0]
 8000584:	4315      	orrs	r5, r2
 8000586:	6025      	str	r5, [r4, #0]
 8000588:	6862      	ldr	r2, [r4, #4]
 800058a:	f006 0601 	and.w	r6, r6, #1
 800058e:	2501      	movs	r5, #1
 8000590:	408e      	lsls	r6, r1
 8000592:	fa05 f101 	lsl.w	r1, r5, r1
 8000596:	ea22 0201 	bic.w	r2, r2, r1
 800059a:	6062      	str	r2, [r4, #4]
 800059c:	6862      	ldr	r2, [r4, #4]
 800059e:	4316      	orrs	r6, r2
 80005a0:	6066      	str	r6, [r4, #4]
 80005a2:	68a1      	ldr	r1, [r4, #8]
 80005a4:	ea21 010c 	bic.w	r1, r1, ip
 80005a8:	60a1      	str	r1, [r4, #8]
 80005aa:	68a2      	ldr	r2, [r4, #8]
 80005ac:	4302      	orrs	r2, r0
 80005ae:	60a2      	str	r2, [r4, #8]
 80005b0:	68e2      	ldr	r2, [r4, #12]
 80005b2:	ea22 020c 	bic.w	r2, r2, ip
 80005b6:	60e2      	str	r2, [r4, #12]
 80005b8:	68e2      	ldr	r2, [r4, #12]
 80005ba:	4313      	orrs	r3, r2
 80005bc:	60e3      	str	r3, [r4, #12]
 80005be:	e8bd 81f0 	ldmia.w	sp!, {r4, r5, r6, r7, r8, pc}
 80005c2:	bf00      	nop

080005c4 <bare_gpio_write>:
 80005c4:	2a01      	cmp	r2, #1
 80005c6:	d004      	beq.n	80005d2 <bare_gpio_write+0xe>
 80005c8:	3110      	adds	r1, #16
 80005ca:	2301      	movs	r3, #1
 80005cc:	408b      	lsls	r3, r1
 80005ce:	6183      	str	r3, [r0, #24]
 80005d0:	4770      	bx	lr
 80005d2:	408a      	lsls	r2, r1
 80005d4:	6182      	str	r2, [r0, #24]
 80005d6:	4770      	bx	lr

080005d8 <bare_gpio_read>:
 80005d8:	6900      	ldr	r0, [r0, #16]
 80005da:	40c8      	lsrs	r0, r1
 80005dc:	f000 0001 	and.w	r0, r0, #1
 80005e0:	4770      	bx	lr
 80005e2:	bf00      	nop

080005e4 <bare_gpio_toggle>:
 80005e4:	6942      	ldr	r2, [r0, #20]
 80005e6:	2301      	movs	r3, #1
 80005e8:	408b      	lsls	r3, r1
 80005ea:	4053      	eors	r3, r2
 80005ec:	6143      	str	r3, [r0, #20]
 80005ee:	4770      	bx	lr

080005f0 <bare_gpio_AF>:
 80005f0:	b570      	push	{r4, r5, r6, lr}
 80005f2:	4604      	mov	r4, r0
 80005f4:	4615      	mov	r5, r2
 80005f6:	f7ff ff4b 	bl	8000490 <bare_gpio_enable_clock>
 80005fa:	6802      	ldr	r2, [r0, #0]
 80005fc:	2303      	movs	r3, #3
 80005fe:	0048      	lsls	r0, r1, #1
 8000600:	4083      	lsls	r3, r0
 8000602:	ea22 0203 	bic.w	r2, r2, r3
 8000606:	6022      	str	r2, [r4, #0]
 8000608:	6826      	ldr	r6, [r4, #0]
 800060a:	2202      	movs	r2, #2
 800060c:	4082      	lsls	r2, r0
 800060e:	4332      	orrs	r2, r6
 8000610:	6022      	str	r2, [r4, #0]
 8000612:	6862      	ldr	r2, [r4, #4]
 8000614:	2001      	movs	r0, #1
 8000616:	4088      	lsls	r0, r1
 8000618:	ea22 0200 	bic.w	r2, r2, r0
 800061c:	6062      	str	r2, [r4, #4]
 800061e:	68a2      	ldr	r2, [r4, #8]
 8000620:	ea22 0203 	bic.w	r2, r2, r3
 8000624:	60a2      	str	r2, [r4, #8]
 8000626:	68a2      	ldr	r2, [r4, #8]
 8000628:	431a      	orrs	r2, r3
 800062a:	60a2      	str	r2, [r4, #8]
 800062c:	68e2      	ldr	r2, [r4, #12]
 800062e:	2907      	cmp	r1, #7
 8000630:	ea22 0303 	bic.w	r3, r2, r3
 8000634:	60e3      	str	r3, [r4, #12]
 8000636:	d80c      	bhi.n	8000652 <bare_gpio_AF+0x62>
 8000638:	6a23      	ldr	r3, [r4, #32]
 800063a:	0089      	lsls	r1, r1, #2
 800063c:	220f      	movs	r2, #15
 800063e:	408a      	lsls	r2, r1
 8000640:	ea23 0302 	bic.w	r3, r3, r2
 8000644:	6223      	str	r3, [r4, #32]
 8000646:	6a23      	ldr	r3, [r4, #32]
 8000648:	fa05 f101 	lsl.w	r1, r5, r1
 800064c:	4319      	orrs	r1, r3
 800064e:	6221      	str	r1, [r4, #32]
 8000650:	bd70      	pop	{r4, r5, r6, pc}
 8000652:	3908      	subs	r1, #8
 8000654:	6a63      	ldr	r3, [r4, #36]	@ 0x24
 8000656:	0089      	lsls	r1, r1, #2
 8000658:	220f      	movs	r2, #15
 800065a:	408a      	lsls	r2, r1
 800065c:	ea23 0302 	bic.w	r3, r3, r2
 8000660:	6263      	str	r3, [r4, #36]	@ 0x24
 8000662:	6a63      	ldr	r3, [r4, #36]	@ 0x24
 8000664:	408d      	lsls	r5, r1
 8000666:	431d      	orrs	r5, r3
 8000668:	6265      	str	r5, [r4, #36]	@ 0x24
 800066a:	bd70      	pop	{r4, r5, r6, pc}

0800066c <bare_gpio_check_state>:
 800066c:	6942      	ldr	r2, [r0, #20]
 800066e:	2301      	movs	r3, #1
 8000670:	408b      	lsls	r3, r1
 8000672:	4213      	tst	r3, r2
 8000674:	bf14      	ite	ne
 8000676:	2001      	movne	r0, #1
 8000678:	2000      	moveq	r0, #0
 800067a:	4770      	bx	lr

0800067c <SysTick_Init>:
 800067c:	f04f 23e0 	mov.w	r3, #3758153728	@ 0xe000e000
 8000680:	b410      	push	{r4}
 8000682:	2400      	movs	r4, #0
 8000684:	6158      	str	r0, [r3, #20]
 8000686:	619c      	str	r4, [r3, #24]
 8000688:	6918      	ldr	r0, [r3, #16]
 800068a:	f85d 4b04 	ldr.w	r4, [sp], #4
 800068e:	ea40 0081 	orr.w	r0, r0, r1, lsl #2
 8000692:	6118      	str	r0, [r3, #16]
 8000694:	6919      	ldr	r1, [r3, #16]
 8000696:	ea41 0142 	orr.w	r1, r1, r2, lsl #1
 800069a:	6119      	str	r1, [r3, #16]
 800069c:	691a      	ldr	r2, [r3, #16]
 800069e:	f042 0201 	orr.w	r2, r2, #1
 80006a2:	611a      	str	r2, [r3, #16]
 80006a4:	4770      	bx	lr
 80006a6:	bf00      	nop

080006a8 <SysTick_Set_TIMER>:
 80006a8:	f04f 23e0 	mov.w	r3, #3758153728	@ 0xe000e000
 80006ac:	2200      	movs	r2, #0
 80006ae:	6158      	str	r0, [r3, #20]
 80006b0:	619a      	str	r2, [r3, #24]
 80006b2:	4770      	bx	lr

080006b4 <bare_tim2_5_set>:
 80006b4:	220f      	movs	r2, #15
 80006b6:	f240 33e7 	movw	r3, #999	@ 0x3e7
 80006ba:	6282      	str	r2, [r0, #40]	@ 0x28
 80006bc:	62c3      	str	r3, [r0, #44]	@ 0x2c
 80006be:	4770      	bx	lr

080006c0 <bare_tim2_5_start>:
 80006c0:	f1b0 4f80 	cmp.w	r0, #1073741824	@ 0x40000000
 80006c4:	d021      	beq.n	800070a <bare_tim2_5_start+0x4a>
 80006c6:	4b21      	ldr	r3, [pc, #132]	@ (800074c <bare_tim2_5_start+0x8c>)
 80006c8:	4298      	cmp	r0, r3
 80006ca:	d013      	beq.n	80006f4 <bare_tim2_5_start+0x34>
 80006cc:	4b20      	ldr	r3, [pc, #128]	@ (8000750 <bare_tim2_5_start+0x90>)
 80006ce:	4298      	cmp	r0, r3
 80006d0:	d026      	beq.n	8000720 <bare_tim2_5_start+0x60>
 80006d2:	4b20      	ldr	r3, [pc, #128]	@ (8000754 <bare_tim2_5_start+0x94>)
 80006d4:	4298      	cmp	r0, r3
 80006d6:	d02e      	beq.n	8000736 <bare_tim2_5_start+0x76>
 80006d8:	f240 33e7 	movw	r3, #999	@ 0x3e7
 80006dc:	220f      	movs	r2, #15
 80006de:	6282      	str	r2, [r0, #40]	@ 0x28
 80006e0:	62c3      	str	r3, [r0, #44]	@ 0x2c
 80006e2:	68c3      	ldr	r3, [r0, #12]
 80006e4:	f043 0301 	orr.w	r3, r3, #1
 80006e8:	60c3      	str	r3, [r0, #12]
 80006ea:	6803      	ldr	r3, [r0, #0]
 80006ec:	f043 0301 	orr.w	r3, r3, #1
 80006f0:	6003      	str	r3, [r0, #0]
 80006f2:	4770      	bx	lr
 80006f4:	4918      	ldr	r1, [pc, #96]	@ (8000758 <bare_tim2_5_start+0x98>)
 80006f6:	4a19      	ldr	r2, [pc, #100]	@ (800075c <bare_tim2_5_start+0x9c>)
 80006f8:	6c0b      	ldr	r3, [r1, #64]	@ 0x40
 80006fa:	f043 0302 	orr.w	r3, r3, #2
 80006fe:	640b      	str	r3, [r1, #64]	@ 0x40
 8000700:	6813      	ldr	r3, [r2, #0]
 8000702:	f043 5300 	orr.w	r3, r3, #536870912	@ 0x20000000
 8000706:	6013      	str	r3, [r2, #0]
 8000708:	e7e6      	b.n	80006d8 <bare_tim2_5_start+0x18>
 800070a:	4913      	ldr	r1, [pc, #76]	@ (8000758 <bare_tim2_5_start+0x98>)
 800070c:	4a13      	ldr	r2, [pc, #76]	@ (800075c <bare_tim2_5_start+0x9c>)
 800070e:	6c0b      	ldr	r3, [r1, #64]	@ 0x40
 8000710:	f043 0301 	orr.w	r3, r3, #1
 8000714:	640b      	str	r3, [r1, #64]	@ 0x40
 8000716:	6813      	ldr	r3, [r2, #0]
 8000718:	f043 5380 	orr.w	r3, r3, #268435456	@ 0x10000000
 800071c:	6013      	str	r3, [r2, #0]
 800071e:	e7db      	b.n	80006d8 <bare_tim2_5_start+0x18>
 8000720:	490d      	ldr	r1, [pc, #52]	@ (8000758 <bare_tim2_5_start+0x98>)
 8000722:	4a0e      	ldr	r2, [pc, #56]	@ (800075c <bare_tim2_5_start+0x9c>)
 8000724:	6c0b      	ldr	r3, [r1, #64]	@ 0x40
 8000726:	f043 0304 	orr.w	r3, r3, #4
 800072a:	640b      	str	r3, [r1, #64]	@ 0x40
 800072c:	6813      	ldr	r3, [r2, #0]
 800072e:	f043 4380 	orr.w	r3, r3, #1073741824	@ 0x40000000
 8000732:	6013      	str	r3, [r2, #0]
 8000734:	e7d0      	b.n	80006d8 <bare_tim2_5_start+0x18>
 8000736:	4908      	ldr	r1, [pc, #32]	@ (8000758 <bare_tim2_5_start+0x98>)
 8000738:	4a08      	ldr	r2, [pc, #32]	@ (800075c <bare_tim2_5_start+0x9c>)
 800073a:	6c0b      	ldr	r3, [r1, #64]	@ 0x40
 800073c:	f043 0308 	orr.w	r3, r3, #8
 8000740:	640b      	str	r3, [r1, #64]	@ 0x40
 8000742:	6853      	ldr	r3, [r2, #4]
 8000744:	f443 2380 	orr.w	r3, r3, #262144	@ 0x40000
 8000748:	6053      	str	r3, [r2, #4]
 800074a:	e7c5      	b.n	80006d8 <bare_tim2_5_start+0x18>
 800074c:	40000400 	andmi	r0, r0, r0, lsl #8
 8000750:	40000800 	andmi	r0, r0, r0, lsl #16
 8000754:	40000c00 	andmi	r0, r0, r0, lsl #24
 8000758:	40023800 	andmi	r3, r2, r0, lsl #16
 800075c:	e0000100 	and	r0, r0, r0, lsl #2

08000760 <bare_tim2_5_stop>:
 8000760:	6803      	ldr	r3, [r0, #0]
 8000762:	f1b0 4f80 	cmp.w	r0, #1073741824	@ 0x40000000
 8000766:	f023 0301 	bic.w	r3, r3, #1
 800076a:	6003      	str	r3, [r0, #0]
 800076c:	d018      	beq.n	80007a0 <bare_tim2_5_stop+0x40>
 800076e:	4b20      	ldr	r3, [pc, #128]	@ (80007f0 <bare_tim2_5_stop+0x90>)
 8000770:	4298      	cmp	r0, r3
 8000772:	d008      	beq.n	8000786 <bare_tim2_5_stop+0x26>
 8000774:	f503 6380 	add.w	r3, r3, #1024	@ 0x400
 8000778:	4298      	cmp	r0, r3
 800077a:	d01e      	beq.n	80007ba <bare_tim2_5_stop+0x5a>
 800077c:	f503 6380 	add.w	r3, r3, #1024	@ 0x400
 8000780:	4298      	cmp	r0, r3
 8000782:	d027      	beq.n	80007d4 <bare_tim2_5_stop+0x74>
 8000784:	4770      	bx	lr
 8000786:	491b      	ldr	r1, [pc, #108]	@ (80007f4 <bare_tim2_5_stop+0x94>)
 8000788:	4a1b      	ldr	r2, [pc, #108]	@ (80007f8 <bare_tim2_5_stop+0x98>)
 800078a:	f8d1 3080 	ldr.w	r3, [r1, #128]	@ 0x80
 800078e:	f043 5300 	orr.w	r3, r3, #536870912	@ 0x20000000
 8000792:	f8c1 3080 	str.w	r3, [r1, #128]	@ 0x80
 8000796:	6c13      	ldr	r3, [r2, #64]	@ 0x40
 8000798:	f023 0302 	bic.w	r3, r3, #2
 800079c:	6413      	str	r3, [r2, #64]	@ 0x40
 800079e:	4770      	bx	lr
 80007a0:	4914      	ldr	r1, [pc, #80]	@ (80007f4 <bare_tim2_5_stop+0x94>)
 80007a2:	4a15      	ldr	r2, [pc, #84]	@ (80007f8 <bare_tim2_5_stop+0x98>)
 80007a4:	f8d1 3080 	ldr.w	r3, [r1, #128]	@ 0x80
 80007a8:	f043 5380 	orr.w	r3, r3, #268435456	@ 0x10000000
 80007ac:	f8c1 3080 	str.w	r3, [r1, #128]	@ 0x80
 80007b0:	6c13      	ldr	r3, [r2, #64]	@ 0x40
 80007b2:	f023 0301 	bic.w	r3, r3, #1
 80007b6:	6413      	str	r3, [r2, #64]	@ 0x40
 80007b8:	4770      	bx	lr
 80007ba:	490e      	ldr	r1, [pc, #56]	@ (80007f4 <bare_tim2_5_stop+0x94>)
 80007bc:	4a0e      	ldr	r2, [pc, #56]	@ (80007f8 <bare_tim2_5_stop+0x98>)
 80007be:	f8d1 3080 	ldr.w	r3, [r1, #128]	@ 0x80
 80007c2:	f043 4380 	orr.w	r3, r3, #1073741824	@ 0x40000000
 80007c6:	f8c1 3080 	str.w	r3, [r1, #128]	@ 0x80
 80007ca:	6c13      	ldr	r3, [r2, #64]	@ 0x40
 80007cc:	f023 0304 	bic.w	r3, r3, #4
 80007d0:	6413      	str	r3, [r2, #64]	@ 0x40
 80007d2:	4770      	bx	lr
 80007d4:	4907      	ldr	r1, [pc, #28]	@ (80007f4 <bare_tim2_5_stop+0x94>)
 80007d6:	4a08      	ldr	r2, [pc, #32]	@ (80007f8 <bare_tim2_5_stop+0x98>)
 80007d8:	f8d1 3084 	ldr.w	r3, [r1, #132]	@ 0x84
 80007dc:	f443 2380 	orr.w	r3, r3, #262144	@ 0x40000
 80007e0:	f8c1 3084 	str.w	r3, [r1, #132]	@ 0x84
 80007e4:	6c13      	ldr	r3, [r2, #64]	@ 0x40
 80007e6:	f023 0308 	bic.w	r3, r3, #8
 80007ea:	6413      	str	r3, [r2, #64]	@ 0x40
 80007ec:	4770      	bx	lr
 80007ee:	bf00      	nop
 80007f0:	40000400 	andmi	r0, r0, r0, lsl #8
 80007f4:	e0000100 	and	r0, r0, r0, lsl #2
 80007f8:	40023800 	andmi	r3, r2, r0, lsl #16

080007fc <bare_tim2_5_PWM>:
 80007fc:	f1b0 4f80 	cmp.w	r0, #1073741824	@ 0x40000000
 8000800:	d032      	beq.n	8000868 <bare_tim2_5_PWM+0x6c>
 8000802:	4b22      	ldr	r3, [pc, #136]	@ (800088c <bare_tim2_5_PWM+0x90>)
 8000804:	4298      	cmp	r0, r3
 8000806:	d029      	beq.n	800085c <bare_tim2_5_PWM+0x60>
 8000808:	4b21      	ldr	r3, [pc, #132]	@ (8000890 <bare_tim2_5_PWM+0x94>)
 800080a:	4298      	cmp	r0, r3
 800080c:	d032      	beq.n	8000874 <bare_tim2_5_PWM+0x78>
 800080e:	4b21      	ldr	r3, [pc, #132]	@ (8000894 <bare_tim2_5_PWM+0x98>)
 8000810:	4298      	cmp	r0, r3
 8000812:	d035      	beq.n	8000880 <bare_tim2_5_PWM+0x84>
 8000814:	220f      	movs	r2, #15
 8000816:	f240 33e7 	movw	r3, #999	@ 0x3e7
 800081a:	6282      	str	r2, [r0, #40]	@ 0x28
 800081c:	62c3      	str	r3, [r0, #44]	@ 0x2c
 800081e:	6983      	ldr	r3, [r0, #24]
 8000820:	f023 0370 	bic.w	r3, r3, #112	@ 0x70
 8000824:	6183      	str	r3, [r0, #24]
 8000826:	6983      	ldr	r3, [r0, #24]
 8000828:	f043 0360 	orr.w	r3, r3, #96	@ 0x60
 800082c:	6183      	str	r3, [r0, #24]
 800082e:	6983      	ldr	r3, [r0, #24]
 8000830:	2200      	movs	r2, #0
 8000832:	f043 0308 	orr.w	r3, r3, #8
 8000836:	6183      	str	r3, [r0, #24]
 8000838:	6342      	str	r2, [r0, #52]	@ 0x34
 800083a:	6a03      	ldr	r3, [r0, #32]
 800083c:	f043 0301 	orr.w	r3, r3, #1
 8000840:	6203      	str	r3, [r0, #32]
 8000842:	6803      	ldr	r3, [r0, #0]
 8000844:	f043 0380 	orr.w	r3, r3, #128	@ 0x80
 8000848:	6003      	str	r3, [r0, #0]
 800084a:	6943      	ldr	r3, [r0, #20]
 800084c:	f043 0301 	orr.w	r3, r3, #1
 8000850:	6143      	str	r3, [r0, #20]
 8000852:	6803      	ldr	r3, [r0, #0]
 8000854:	f043 0301 	orr.w	r3, r3, #1
 8000858:	6003      	str	r3, [r0, #0]
 800085a:	4770      	bx	lr
 800085c:	4a0e      	ldr	r2, [pc, #56]	@ (8000898 <bare_tim2_5_PWM+0x9c>)
 800085e:	6c13      	ldr	r3, [r2, #64]	@ 0x40
 8000860:	f043 0302 	orr.w	r3, r3, #2
 8000864:	6413      	str	r3, [r2, #64]	@ 0x40
 8000866:	e7d5      	b.n	8000814 <bare_tim2_5_PWM+0x18>
 8000868:	4a0b      	ldr	r2, [pc, #44]	@ (8000898 <bare_tim2_5_PWM+0x9c>)
 800086a:	6c13      	ldr	r3, [r2, #64]	@ 0x40
 800086c:	f043 0301 	orr.w	r3, r3, #1
 8000870:	6413      	str	r3, [r2, #64]	@ 0x40
 8000872:	e7cf      	b.n	8000814 <bare_tim2_5_PWM+0x18>
 8000874:	4a08      	ldr	r2, [pc, #32]	@ (8000898 <bare_tim2_5_PWM+0x9c>)
 8000876:	6c13      	ldr	r3, [r2, #64]	@ 0x40
 8000878:	f043 0304 	orr.w	r3, r3, #4
 800087c:	6413      	str	r3, [r2, #64]	@ 0x40
 800087e:	e7c9      	b.n	8000814 <bare_tim2_5_PWM+0x18>
 8000880:	4a05      	ldr	r2, [pc, #20]	@ (8000898 <bare_tim2_5_PWM+0x9c>)
 8000882:	6c13      	ldr	r3, [r2, #64]	@ 0x40
 8000884:	f043 0308 	orr.w	r3, r3, #8
 8000888:	6413      	str	r3, [r2, #64]	@ 0x40
 800088a:	e7c3      	b.n	8000814 <bare_tim2_5_PWM+0x18>
 800088c:	40000400 	andmi	r0, r0, r0, lsl #8
 8000890:	40000800 	andmi	r0, r0, r0, lsl #16
 8000894:	40000c00 	andmi	r0, r0, r0, lsl #24
 8000898:	40023800 	andmi	r3, r2, r0, lsl #16

0800089c <bare_pwm_set_duty>:
 800089c:	6ac3      	ldr	r3, [r0, #44]	@ 0x2c
 800089e:	4a05      	ldr	r2, [pc, #20]	@ (80008b4 <bare_pwm_set_duty+0x18>)
 80008a0:	2964      	cmp	r1, #100	@ 0x64
 80008a2:	bf28      	it	cs
 80008a4:	2164      	movcs	r1, #100	@ 0x64
 80008a6:	fb01 f303 	mul.w	r3, r1, r3
 80008aa:	fba2 2303 	umull	r2, r3, r2, r3
 80008ae:	095b      	lsrs	r3, r3, #5
 80008b0:	6343      	str	r3, [r0, #52]	@ 0x34
 80008b2:	4770      	bx	lr
 80008b4:	51eb851f 	mvnpl	r8, pc, lsl r5

080008b8 <bare_usart_init_port>:
 80008b8:	2800      	cmp	r0, #0
 80008ba:	d04d      	beq.n	8000958 <bare_usart_init_port+0xa0>
 80008bc:	b538      	push	{r3, r4, r5, lr}
 80008be:	4b3b      	ldr	r3, [pc, #236]	@ (80009ac <bare_usart_init_port+0xf4>)
 80008c0:	4298      	cmp	r0, r3
 80008c2:	460d      	mov	r5, r1
 80008c4:	4604      	mov	r4, r0
 80008c6:	d01e      	beq.n	8000906 <bare_usart_init_port+0x4e>
 80008c8:	4b39      	ldr	r3, [pc, #228]	@ (80009b0 <bare_usart_init_port+0xf8>)
 80008ca:	4298      	cmp	r0, r3
 80008cc:	d045      	beq.n	800095a <bare_usart_init_port+0xa2>
 80008ce:	f503 6380 	add.w	r3, r3, #1024	@ 0x400
 80008d2:	4298      	cmp	r0, r3
 80008d4:	d055      	beq.n	8000982 <bare_usart_init_port+0xca>
 80008d6:	f503 434c 	add.w	r3, r3, #52224	@ 0xcc00
 80008da:	4298      	cmp	r0, r3
 80008dc:	d127      	bne.n	800092e <bare_usart_init_port+0x76>
 80008de:	4b35      	ldr	r3, [pc, #212]	@ (80009b4 <bare_usart_init_port+0xfc>)
 80008e0:	4835      	ldr	r0, [pc, #212]	@ (80009b8 <bare_usart_init_port+0x100>)
 80008e2:	6c59      	ldr	r1, [r3, #68]	@ 0x44
 80008e4:	f041 0120 	orr.w	r1, r1, #32
 80008e8:	6459      	str	r1, [r3, #68]	@ 0x44
 80008ea:	6b19      	ldr	r1, [r3, #48]	@ 0x30
 80008ec:	f041 0104 	orr.w	r1, r1, #4
 80008f0:	6319      	str	r1, [r3, #48]	@ 0x30
 80008f2:	2208      	movs	r2, #8
 80008f4:	2106      	movs	r1, #6
 80008f6:	f7ff fe7b 	bl	80005f0 <bare_gpio_AF>
 80008fa:	482f      	ldr	r0, [pc, #188]	@ (80009b8 <bare_usart_init_port+0x100>)
 80008fc:	2208      	movs	r2, #8
 80008fe:	2107      	movs	r1, #7
 8000900:	f7ff fe76 	bl	80005f0 <bare_gpio_AF>
 8000904:	e013      	b.n	800092e <bare_usart_init_port+0x76>
 8000906:	f503 3394 	add.w	r3, r3, #75776	@ 0x12800
 800090a:	482c      	ldr	r0, [pc, #176]	@ (80009bc <bare_usart_init_port+0x104>)
 800090c:	6c59      	ldr	r1, [r3, #68]	@ 0x44
 800090e:	f041 0110 	orr.w	r1, r1, #16
 8000912:	6459      	str	r1, [r3, #68]	@ 0x44
 8000914:	6b19      	ldr	r1, [r3, #48]	@ 0x30
 8000916:	f041 0101 	orr.w	r1, r1, #1
 800091a:	2207      	movs	r2, #7
 800091c:	6319      	str	r1, [r3, #48]	@ 0x30
 800091e:	2109      	movs	r1, #9
 8000920:	f7ff fe66 	bl	80005f0 <bare_gpio_AF>
 8000924:	4825      	ldr	r0, [pc, #148]	@ (80009bc <bare_usart_init_port+0x104>)
 8000926:	2207      	movs	r2, #7
 8000928:	210a      	movs	r1, #10
 800092a:	f7ff fe61 	bl	80005f0 <bare_gpio_AF>
 800092e:	086b      	lsrs	r3, r5, #1
 8000930:	f503 0374 	add.w	r3, r3, #15990784	@ 0xf40000
 8000934:	f503 5310 	add.w	r3, r3, #9216	@ 0x2400
 8000938:	fbb3 f3f5 	udiv	r3, r3, r5
 800093c:	60a3      	str	r3, [r4, #8]
 800093e:	68e3      	ldr	r3, [r4, #12]
 8000940:	f043 0308 	orr.w	r3, r3, #8
 8000944:	60e3      	str	r3, [r4, #12]
 8000946:	68e3      	ldr	r3, [r4, #12]
 8000948:	f043 0304 	orr.w	r3, r3, #4
 800094c:	60e3      	str	r3, [r4, #12]
 800094e:	68e3      	ldr	r3, [r4, #12]
 8000950:	f443 5300 	orr.w	r3, r3, #8192	@ 0x2000
 8000954:	60e3      	str	r3, [r4, #12]
 8000956:	bd38      	pop	{r3, r4, r5, pc}
 8000958:	4770      	bx	lr
 800095a:	4b16      	ldr	r3, [pc, #88]	@ (80009b4 <bare_usart_init_port+0xfc>)
 800095c:	4817      	ldr	r0, [pc, #92]	@ (80009bc <bare_usart_init_port+0x104>)
 800095e:	6c19      	ldr	r1, [r3, #64]	@ 0x40
 8000960:	f441 3100 	orr.w	r1, r1, #131072	@ 0x20000
 8000964:	6419      	str	r1, [r3, #64]	@ 0x40
 8000966:	6b19      	ldr	r1, [r3, #48]	@ 0x30
 8000968:	f041 0101 	orr.w	r1, r1, #1
 800096c:	6319      	str	r1, [r3, #48]	@ 0x30
 800096e:	2207      	movs	r2, #7
 8000970:	2102      	movs	r1, #2
 8000972:	f7ff fe3d 	bl	80005f0 <bare_gpio_AF>
 8000976:	4811      	ldr	r0, [pc, #68]	@ (80009bc <bare_usart_init_port+0x104>)
 8000978:	2207      	movs	r2, #7
 800097a:	2103      	movs	r1, #3
 800097c:	f7ff fe38 	bl	80005f0 <bare_gpio_AF>
 8000980:	e7d5      	b.n	800092e <bare_usart_init_port+0x76>
 8000982:	4b0c      	ldr	r3, [pc, #48]	@ (80009b4 <bare_usart_init_port+0xfc>)
 8000984:	480e      	ldr	r0, [pc, #56]	@ (80009c0 <bare_usart_init_port+0x108>)
 8000986:	6c19      	ldr	r1, [r3, #64]	@ 0x40
 8000988:	f441 2180 	orr.w	r1, r1, #262144	@ 0x40000
 800098c:	6419      	str	r1, [r3, #64]	@ 0x40
 800098e:	6b19      	ldr	r1, [r3, #48]	@ 0x30
 8000990:	f041 0102 	orr.w	r1, r1, #2
 8000994:	6319      	str	r1, [r3, #48]	@ 0x30
 8000996:	2207      	movs	r2, #7
 8000998:	210a      	movs	r1, #10
 800099a:	f7ff fe29 	bl	80005f0 <bare_gpio_AF>
 800099e:	4808      	ldr	r0, [pc, #32]	@ (80009c0 <bare_usart_init_port+0x108>)
 80009a0:	2207      	movs	r2, #7
 80009a2:	210b      	movs	r1, #11
 80009a4:	f7ff fe24 	bl	80005f0 <bare_gpio_AF>
 80009a8:	e7c1      	b.n	800092e <bare_usart_init_port+0x76>
 80009aa:	bf00      	nop
 80009ac:	40011000 	andmi	r1, r1, r0
 80009b0:	40004400 	andmi	r4, r0, r0, lsl #8
 80009b4:	40023800 	andmi	r3, r2, r0, lsl #16
 80009b8:	40020800 	andmi	r0, r2, r0, lsl #16
 80009bc:	40020000 	andmi	r0, r2, r0
 80009c0:	40020400 	andmi	r0, r2, r0, lsl #8

080009c4 <bare_usart_send_string_port>:
 80009c4:	b150      	cbz	r0, 80009dc <bare_usart_send_string_port+0x18>
 80009c6:	b149      	cbz	r1, 80009dc <bare_usart_send_string_port+0x18>
 80009c8:	780a      	ldrb	r2, [r1, #0]
 80009ca:	b13a      	cbz	r2, 80009dc <bare_usart_send_string_port+0x18>
 80009cc:	6803      	ldr	r3, [r0, #0]
 80009ce:	061b      	lsls	r3, r3, #24
 80009d0:	d5fc      	bpl.n	80009cc <bare_usart_send_string_port+0x8>
 80009d2:	6042      	str	r2, [r0, #4]
 80009d4:	f811 2f01 	ldrb.w	r2, [r1, #1]!
 80009d8:	2a00      	cmp	r2, #0
 80009da:	d1f7      	bne.n	80009cc <bare_usart_send_string_port+0x8>
 80009dc:	4770      	bx	lr
 80009de:	bf00      	nop

080009e0 <bare_usart_read_char_port>:
 80009e0:	b120      	cbz	r0, 80009ec <bare_usart_read_char_port+0xc>
 80009e2:	6803      	ldr	r3, [r0, #0]
 80009e4:	069b      	lsls	r3, r3, #26
 80009e6:	d5fc      	bpl.n	80009e2 <bare_usart_read_char_port+0x2>
 80009e8:	6840      	ldr	r0, [r0, #4]
 80009ea:	b2c0      	uxtb	r0, r0
 80009ec:	4770      	bx	lr
 80009ee:	bf00      	nop

080009f0 <bare_usart_clear_screen_port>:
 80009f0:	b148      	cbz	r0, 8000a06 <bare_usart_clear_screen_port+0x16>
 80009f2:	4905      	ldr	r1, [pc, #20]	@ (8000a08 <bare_usart_clear_screen_port+0x18>)
 80009f4:	221b      	movs	r2, #27
 80009f6:	6803      	ldr	r3, [r0, #0]
 80009f8:	061b      	lsls	r3, r3, #24
 80009fa:	d5fc      	bpl.n	80009f6 <bare_usart_clear_screen_port+0x6>
 80009fc:	6042      	str	r2, [r0, #4]
 80009fe:	f811 2f01 	ldrb.w	r2, [r1, #1]!
 8000a02:	2a00      	cmp	r2, #0
 8000a04:	d1f7      	bne.n	80009f6 <bare_usart_clear_screen_port+0x6>
 8000a06:	4770      	bx	lr
 8000a08:	08000b38 	stmdaeq	r0, {r3, r4, r5, r8, r9, fp}

08000a0c <bare_usart_init>:
 8000a0c:	b538      	push	{r3, r4, r5, lr}
 8000a0e:	4b12      	ldr	r3, [pc, #72]	@ (8000a58 <bare_usart_init+0x4c>)
 8000a10:	4d12      	ldr	r5, [pc, #72]	@ (8000a5c <bare_usart_init+0x50>)
 8000a12:	6c19      	ldr	r1, [r3, #64]	@ 0x40
 8000a14:	f441 3100 	orr.w	r1, r1, #131072	@ 0x20000
 8000a18:	6419      	str	r1, [r3, #64]	@ 0x40
 8000a1a:	6b1c      	ldr	r4, [r3, #48]	@ 0x30
 8000a1c:	f044 0401 	orr.w	r4, r4, #1
 8000a20:	631c      	str	r4, [r3, #48]	@ 0x30
 8000a22:	2207      	movs	r2, #7
 8000a24:	2102      	movs	r1, #2
 8000a26:	4628      	mov	r0, r5
 8000a28:	f7ff fde2 	bl	80005f0 <bare_gpio_AF>
 8000a2c:	2207      	movs	r2, #7
 8000a2e:	2103      	movs	r1, #3
 8000a30:	4628      	mov	r0, r5
 8000a32:	f7ff fddd 	bl	80005f0 <bare_gpio_AF>
 8000a36:	4b0a      	ldr	r3, [pc, #40]	@ (8000a60 <bare_usart_init+0x54>)
 8000a38:	228b      	movs	r2, #139	@ 0x8b
 8000a3a:	609a      	str	r2, [r3, #8]
 8000a3c:	68da      	ldr	r2, [r3, #12]
 8000a3e:	f042 0208 	orr.w	r2, r2, #8
 8000a42:	60da      	str	r2, [r3, #12]
 8000a44:	68da      	ldr	r2, [r3, #12]
 8000a46:	f042 0204 	orr.w	r2, r2, #4
 8000a4a:	60da      	str	r2, [r3, #12]
 8000a4c:	68da      	ldr	r2, [r3, #12]
 8000a4e:	f442 5200 	orr.w	r2, r2, #8192	@ 0x2000
 8000a52:	60da      	str	r2, [r3, #12]
 8000a54:	bd38      	pop	{r3, r4, r5, pc}
 8000a56:	bf00      	nop
 8000a58:	40023800 	andmi	r3, r2, r0, lsl #16
 8000a5c:	40020000 	andmi	r0, r2, r0
 8000a60:	40004400 	andmi	r4, r0, r0, lsl #8

08000a64 <bare_usart_send_string>:
 8000a64:	b150      	cbz	r0, 8000a7c <bare_usart_send_string+0x18>
 8000a66:	7801      	ldrb	r1, [r0, #0]
 8000a68:	b141      	cbz	r1, 8000a7c <bare_usart_send_string+0x18>
 8000a6a:	4a05      	ldr	r2, [pc, #20]	@ (8000a80 <bare_usart_send_string+0x1c>)
 8000a6c:	6813      	ldr	r3, [r2, #0]
 8000a6e:	061b      	lsls	r3, r3, #24
 8000a70:	d5fc      	bpl.n	8000a6c <bare_usart_send_string+0x8>
 8000a72:	6051      	str	r1, [r2, #4]
 8000a74:	f810 1f01 	ldrb.w	r1, [r0, #1]!
 8000a78:	2900      	cmp	r1, #0
 8000a7a:	d1f7      	bne.n	8000a6c <bare_usart_send_string+0x8>
 8000a7c:	4770      	bx	lr
 8000a7e:	bf00      	nop
 8000a80:	40004400 	andmi	r4, r0, r0, lsl #8

08000a84 <bare_usart_read_char>:
 8000a84:	4a03      	ldr	r2, [pc, #12]	@ (8000a94 <bare_usart_read_char+0x10>)
 8000a86:	6813      	ldr	r3, [r2, #0]
 8000a88:	069b      	lsls	r3, r3, #26
 8000a8a:	d5fc      	bpl.n	8000a86 <bare_usart_read_char+0x2>
 8000a8c:	6850      	ldr	r0, [r2, #4]
 8000a8e:	b2c0      	uxtb	r0, r0
 8000a90:	4770      	bx	lr
 8000a92:	bf00      	nop
 8000a94:	40004400 	andmi	r4, r0, r0, lsl #8

08000a98 <bare_usart_clear_screen>:
 8000a98:	4805      	ldr	r0, [pc, #20]	@ (8000ab0 <bare_usart_clear_screen+0x18>)
 8000a9a:	4a06      	ldr	r2, [pc, #24]	@ (8000ab4 <bare_usart_clear_screen+0x1c>)
 8000a9c:	211b      	movs	r1, #27
 8000a9e:	6813      	ldr	r3, [r2, #0]
 8000aa0:	061b      	lsls	r3, r3, #24
 8000aa2:	d5fc      	bpl.n	8000a9e <bare_usart_clear_screen+0x6>
 8000aa4:	6051      	str	r1, [r2, #4]
 8000aa6:	f810 1f01 	ldrb.w	r1, [r0, #1]!
 8000aaa:	2900      	cmp	r1, #0
 8000aac:	d1f7      	bne.n	8000a9e <bare_usart_clear_screen+0x6>
 8000aae:	4770      	bx	lr
 8000ab0:	08000b38 	stmdaeq	r0, {r3, r4, r5, r8, r9, fp}
 8000ab4:	40004400 	andmi	r4, r0, r0, lsl #8
 8000ab8:	08000b40 	stmdaeq	r0, {r6, r8, r9, fp}
 8000abc:	20000000 	andcs	r0, r0, r0
 8000ac0:	20000000 	andcs	r0, r0, r0
 8000ac4:	20000000 	andcs	r0, r0, r0
 8000ac8:	20000000 	andcs	r0, r0, r0

08000acc <main>:
 8000acc:	b508      	push	{r3, lr}
 8000ace:	f7ff fba9 	bl	8000224 <board_pwm_led_init>
 8000ad2:	2064      	movs	r0, #100	@ 0x64
 8000ad4:	f7ff fbbe 	bl	8000254 <board_pwm_set_brightness>
 8000ad8:	e7fe      	b.n	8000ad8 <main+0xc>
 8000ada:	bf00      	nop

08000adc <Reset_Handler>:
 8000adc:	f8df d02c 	ldr.w	sp, [pc, #44]	@ 8000b0c <LoopFillZerobss+0xa>
 8000ae0:	480b      	ldr	r0, [pc, #44]	@ (8000b10 <LoopFillZerobss+0xe>)
 8000ae2:	490c      	ldr	r1, [pc, #48]	@ (8000b14 <LoopFillZerobss+0x12>)
 8000ae4:	4a0c      	ldr	r2, [pc, #48]	@ (8000b18 <LoopFillZerobss+0x16>)
 8000ae6:	2300      	movs	r3, #0
 8000ae8:	e002      	b.n	8000af0 <LoopCopyDataInit>

08000aea <CopyDataInit>:
 8000aea:	58d4      	ldr	r4, [r2, r3]
 8000aec:	50c4      	str	r4, [r0, r3]
 8000aee:	3304      	adds	r3, #4

08000af0 <LoopCopyDataInit>:
 8000af0:	18c4      	adds	r4, r0, r3
 8000af2:	428c      	cmp	r4, r1
 8000af4:	d3f9      	bcc.n	8000aea <CopyDataInit>
 8000af6:	4a09      	ldr	r2, [pc, #36]	@ (8000b1c <LoopFillZerobss+0x1a>)
 8000af8:	4c09      	ldr	r4, [pc, #36]	@ (8000b20 <LoopFillZerobss+0x1e>)
 8000afa:	2300      	movs	r3, #0
 8000afc:	e001      	b.n	8000b02 <LoopFillZerobss>

08000afe <FillZerobss>:
 8000afe:	6013      	str	r3, [r2, #0]
 8000b00:	3204      	adds	r2, #4

08000b02 <LoopFillZerobss>:
 8000b02:	42a2      	cmp	r2, r4
 8000b04:	d3fb      	bcc.n	8000afe <FillZerobss>
 8000b06:	f7ff ffe1 	bl	8000acc <main>
 8000b0a:	4770      	bx	lr
 8000b0c:	20020000 	andcs	r0, r2, r0
 8000b10:	20000000 	andcs	r0, r0, r0
 8000b14:	20000000 	andcs	r0, r0, r0
 8000b18:	08000b40 	stmdaeq	r0, {r6, r8, r9, fp}
 8000b1c:	20000000 	andcs	r0, r0, r0
 8000b20:	20000000 	andcs	r0, r0, r0

08000b24 <ADC_IRQHandler>:
 8000b24:	e7fe      	b.n	8000b24 <ADC_IRQHandler>
	...

Disassembly of section .rodata:

08000b28 <CSWTCH.1>:
 8000b28:	40011000 	andmi	r1, r1, r0
 8000b2c:	40004400 	andmi	r4, r0, r0, lsl #8
 8000b30:	40004800 	andmi	r4, r0, r0, lsl #16
 8000b34:	40011400 	andmi	r1, r1, r0, lsl #8
 8000b38:	4a325b1b 	bmi	8c977ac <__exidx_end+0xc96c6c>
 8000b3c:	00485b1b 	subeq	r5, r8, fp, lsl fp

Disassembly of section ._user_heap_stack:

20000000 <._user_heap_stack>:
	...

Disassembly of section .ARM.attributes:

00000000 <.ARM.attributes>:
   0:	00003141 	andeq	r3, r0, r1, asr #2
   4:	61656100 	cmnvs	r5, r0, lsl #2
   8:	01006962 	tsteq	r0, r2, ror #18
   c:	00000027 	andeq	r0, r0, r7, lsr #32
  10:	2d453705 	stclcs	7, cr3, [r5, #-20]	@ 0xffffffec
  14:	0d06004d 	stceq	0, cr0, [r6, #-308]	@ 0xfffffecc
  18:	02094d07 	andeq	r4, r9, #448	@ 0x1c0
  1c:	0412060a 	ldreq	r0, [r2], #-1546	@ 0xfffff9f6
  20:	01150114 	tsteq	r5, r4, lsl r1
  24:	01180317 	tsteq	r8, r7, lsl r3
  28:	011b011a 	tsteq	fp, sl, lsl r1
  2c:	021e011c 	andseq	r0, lr, #28, 2
  30:	Address 0x30 is out of bounds.


Disassembly of section .comment:

00000000 <.comment>:
   0:	3a434347 	bcc	10d0d24 <_Min_Stack_Size+0x10d0924>
   4:	35312820 	ldrcc	r2, [r1, #-2080]!	@ 0xfffff7e0
   8:	2e32313a 	mrccs	1, 1, r3, cr2, cr10, {1}
   c:	65722e32 	ldrbvs	r2, [r2, #-3634]!	@ 0xfffff1ce
  10:	312d316c 			@ <UNDEFINED> instruction: 0x312d316c
  14:	32312029 	eorscc	r2, r1, #41	@ 0x29
  18:	312e322e 			@ <UNDEFINED> instruction: 0x312e322e
  1c:	32303220 	eorscc	r3, r0, #32, 4
  20:	30323132 	eorscc	r3, r2, r2, lsr r1
  24:	Address 0x24 is out of bounds.

